(lp0
Vi
p1
aVme
p2
aVmy
p3
aVmyself
p4
aVwe
p5
aVour
p6
aVours
p7
aVourselves
p8
aVyou
p9
aVyour
p10
aVyours
p11
aVyourself
p12
aVyourselves
p13
aVhe
p14
aVhim
p15
aVhis
p16
aVhimself
p17
aVshe
p18
aVher
p19
aVhers
p20
aVherself
p21
aVit
p22
aVits
p23
aVitself
p24
aVthey
p25
aVthem
p26
aVtheir
p27
aVtheirs
p28
aVthemselves
p29
aVwhat
p30
aVwhich
p31
aVwho
p32
aVwhom
p33
aVthis
p34
aVthat
p35
aVthese
p36
aVthose
p37
aVam
p38
aVis
p39
aVare
p40
aVwas
p41
aVwere
p42
aVbe
p43
aVbeen
p44
aVbeing
p45
aVhave
p46
aVhas
p47
aVhad
p48
aVhaving
p49
aVdo
p50
aVdoes
p51
aVdid
p52
aVdoing
p53
aVa
p54
aVan
p55
aVthe
p56
aVand
p57
aVbut
p58
aVif
p59
aVor
p60
aVbecause
p61
aVas
p62
aVuntil
p63
aVwhile
p64
aVof
p65
aVat
p66
aVby
p67
aVfor
p68
aVwith
p69
aVabout
p70
aVagainst
p71
aVbetween
p72
aVinto
p73
aVthrough
p74
aVduring
p75
aVbefore
p76
aVafter
p77
aVabove
p78
aVbelow
p79
aVto
p80
aVfrom
p81
aVup
p82
aVdown
p83
aVin
p84
aVout
p85
aVon
p86
aVoff
p87
aVover
p88
aVunder
p89
aVagain
p90
aVfurther
p91
aVthen
p92
aVonce
p93
aVhere
p94
aVthere
p95
aVwhen
p96
aVwhere
p97
aVwhy
p98
aVhow
p99
aVall
p100
aVany
p101
aVboth
p102
aVeach
p103
aVfew
p104
aVmore
p105
aVmost
p106
aVother
p107
aVsome
p108
aVsuch
p109
aVno
p110
aVnor
p111
aVnot
p112
aVonly
p113
aVown
p114
aVsame
p115
aVso
p116
aVthan
p117
aVtoo
p118
aVvery
p119
aVs
p120
aVt
p121
aVcan
p122
aVwill
p123
aVjust
p124
aVdon
p125
aVshould
p126
aVnow
p127
aVd
p128
aVll
p129
aVm
p130
aVo
p131
aVre
p132
aVve
p133
aVy
p134
aVain
p135
aVaren
p136
aVcouldn
p137
aVdidn
p138
aVdoesn
p139
aVhadn
p140
aVhasn
p141
aVhaven
p142
aVisn
p143
aVma
p144
aVmightn
p145
aVmustn
p146
aVneedn
p147
aVshan
p148
aVshouldn
p149
aVwasn
p150
aVweren
p151
aVwon
p152
aVwouldn
p153
a.